target datalayout = "e-m:e-p270:32:32-p271:32:32-p272:64:64-i64:64-i128:128-f80:128-n8:16:32:64-S128"
target triple = "x86_64-pc-linux-gnu"

%struct.prov_drbg_st = type { ptr, ptr, ptr, ptr, ptr, ptr, ptr, ptr, ptr, ptr, ptr, ptr, ptr, ptr, i32, i16, i32, i64, i64, i64, i64, i64, i64, i64, i32, i32, i64, i64, i32, i32, i32, i64, i32, ptr, ptr, ptr, ptr, ptr, ptr }
%struct.rand_drbg_hash_st = type { %struct.PROV_DIGEST, ptr, i64, [111 x i8], [111 x i8], [111 x i8] }
%struct.PROV_DIGEST = type { ptr, ptr, ptr }

@.str.2 = private unnamed_addr constant [7 x i8] c"digest\00", align 1

; Function Attrs: nounwind uwtable
define internal i32 @drbg_hash_get_ctx_params(ptr noundef %0, ptr noundef %1) #0 {
  %3 = alloca i32, align 4
  %4 = alloca ptr, align 8
  %5 = alloca ptr, align 8
  %6 = alloca ptr, align 8
  %7 = alloca ptr, align 8
  %8 = alloca ptr, align 8
  %9 = alloca ptr, align 8
  %10 = alloca i32, align 4
  %11 = alloca i32, align 4
  %12 = alloca i32, align 4
  store ptr %0, ptr %4, align 8, !tbaa !3
  store ptr %1, ptr %5, align 8, !tbaa !29
  call void @llvm.lifetime.start.p0(i64 8, ptr %6) #4
  %13 = load ptr, ptr %4, align 8, !tbaa !3
  store ptr %13, ptr %6, align 8, !tbaa !9
  call void @llvm.lifetime.start.p0(i64 8, ptr %7) #4
  %14 = load ptr, ptr %6, align 8, !tbaa !9
  %15 = getelementptr inbounds nuw %struct.prov_drbg_st, ptr %14, i32 0, i32 33
  %16 = load ptr, ptr %15, align 8, !tbaa !11
  store ptr %16, ptr %7, align 8, !tbaa !17
  call void @llvm.lifetime.start.p0(i64 8, ptr %8) #4
  call void @llvm.lifetime.start.p0(i64 8, ptr %9) #4
  call void @llvm.lifetime.start.p0(i64 4, ptr %10) #4
  store i32 0, ptr %10, align 4, !tbaa !25
  call void @llvm.lifetime.start.p0(i64 4, ptr %11) #4
  store i32 0, ptr %11, align 4, !tbaa !25
  %17 = load ptr, ptr %6, align 8, !tbaa !9
  %18 = load ptr, ptr %5, align 8, !tbaa !29
  %19 = call i32 @ossl_drbg_get_ctx_params_no_lock(ptr noundef %17, ptr noundef %18, ptr noundef %11)
  %20 = icmp ne i32 %19, 0
  br i1 %20, label %22, label %21

21:                                               ; preds = %2
  store i32 0, ptr %3, align 4
  store i32 1, ptr %12, align 4
  br label %73

22:                                               ; preds = %2
  %23 = load i32, ptr %11, align 4, !tbaa !25
  %24 = icmp ne i32 %23, 0
  br i1 %24, label %25, label %26

25:                                               ; preds = %22
  store i32 1, ptr %3, align 4
  store i32 1, ptr %12, align 4
  br label %73

26:                                               ; preds = %22
  %27 = load ptr, ptr %6, align 8, !tbaa !9
  %28 = getelementptr inbounds nuw %struct.prov_drbg_st, ptr %27, i32 0, i32 0
  %29 = load ptr, ptr %28, align 8, !tbaa !31
  %30 = icmp ne ptr %29, null
  br i1 %30, label %31, label %38

31:                                               ; preds = %26
  %32 = load ptr, ptr %6, align 8, !tbaa !9
  %33 = getelementptr inbounds nuw %struct.prov_drbg_st, ptr %32, i32 0, i32 0
  %34 = load ptr, ptr %33, align 8, !tbaa !31
  %35 = call i32 @CRYPTO_THREAD_read_lock(ptr noundef %34)
  %36 = icmp ne i32 %35, 0
  br i1 %36, label %38, label %37

37:                                               ; preds = %31
  store i32 0, ptr %3, align 4
  store i32 1, ptr %12, align 4
  br label %73

38:                                               ; preds = %31, %26
  %39 = load ptr, ptr %5, align 8, !tbaa !29
  %40 = call ptr @OSSL_PARAM_locate(ptr noundef %39, ptr noundef @.str.2)
  store ptr %40, ptr %9, align 8, !tbaa !29
  %41 = load ptr, ptr %9, align 8, !tbaa !29
  %42 = icmp ne ptr %41, null
  br i1 %42, label %43, label %57

43:                                               ; preds = %38
  %44 = load ptr, ptr %7, align 8, !tbaa !17
  %45 = getelementptr inbounds nuw %struct.rand_drbg_hash_st, ptr %44, i32 0, i32 0
  %46 = call ptr @ossl_prov_digest_md(ptr noundef %45)
  store ptr %46, ptr %8, align 8, !tbaa !32
  %47 = load ptr, ptr %8, align 8, !tbaa !32
  %48 = icmp eq ptr %47, null
  br i1 %48, label %55, label %49

49:                                               ; preds = %43
  %50 = load ptr, ptr %9, align 8, !tbaa !29
  %51 = load ptr, ptr %8, align 8, !tbaa !32
  %52 = call ptr @EVP_MD_get0_name(ptr noundef %51)
  %53 = call i32 @OSSL_PARAM_set_utf8_string(ptr noundef %50, ptr noundef %52)
  %54 = icmp ne i32 %53, 0
  br i1 %54, label %56, label %55

55:                                               ; preds = %49, %43
  br label %61

56:                                               ; preds = %49
  br label %57

57:                                               ; preds = %56, %38
  %58 = load ptr, ptr %6, align 8, !tbaa !9
  %59 = load ptr, ptr %5, align 8, !tbaa !29
  %60 = call i32 @ossl_drbg_get_ctx_params(ptr noundef %58, ptr noundef %59)
  store i32 %60, ptr %10, align 4, !tbaa !25
  br label %61

61:                                               ; preds = %57, %55
  %62 = load ptr, ptr %6, align 8, !tbaa !9
  %63 = getelementptr inbounds nuw %struct.prov_drbg_st, ptr %62, i32 0, i32 0
  %64 = load ptr, ptr %63, align 8, !tbaa !31
  %65 = icmp ne ptr %64, null
  br i1 %65, label %66, label %71

66:                                               ; preds = %61
  %67 = load ptr, ptr %6, align 8, !tbaa !9
  %68 = getelementptr inbounds nuw %struct.prov_drbg_st, ptr %67, i32 0, i32 0
  %69 = load ptr, ptr %68, align 8, !tbaa !31
  %70 = call i32 @CRYPTO_THREAD_unlock(ptr noundef %69)
  br label %71

71:                                               ; preds = %66, %61
  %72 = load i32, ptr %10, align 4, !tbaa !25
  store i32 %72, ptr %3, align 4
  store i32 1, ptr %12, align 4
  br label %73

73:                                               ; preds = %71, %37, %25, %21
  call void @llvm.lifetime.end.p0(i64 4, ptr %11) #4
  call void @llvm.lifetime.end.p0(i64 4, ptr %10) #4
  call void @llvm.lifetime.end.p0(i64 8, ptr %9) #4
  call void @llvm.lifetime.end.p0(i64 8, ptr %8) #4
  call void @llvm.lifetime.end.p0(i64 8, ptr %7) #4
  call void @llvm.lifetime.end.p0(i64 8, ptr %6) #4
  %74 = load i32, ptr %3, align 4
  ret i32 %74
}