; Function Attrs: nounwind uwtable
define internal i32 @drbg_hash_get_ctx_params(ptr noundef %0, ptr noundef %1) #0 {
  %3 = alloca i32, align 4
  %4 = getelementptr inbounds nuw i8, ptr %0, i64 240
  %5 = load ptr, ptr %4, align 8, !tbaa !3
  call void @llvm.lifetime.start.p0(i64 4, ptr nonnull %3) #6
  store i32 0, ptr %3, align 4, !tbaa !19
  %6 = call i32 @ossl_drbg_get_ctx_params_no_lock(ptr noundef %0, ptr noundef %1, ptr noundef nonnull %3) #6
  %.not = icmp eq i32 %6, 0
  br i1 %.not, label %27, label %7

7:                                                ; preds = %2
  %8 = load i32, ptr %3, align 4, !tbaa !19
  %.not22 = icmp eq i32 %8, 0
  br i1 %.not22, label %9, label %27

9:                                                ; preds = %7
  %10 = load ptr, ptr %0, align 8, !tbaa !18
  %.not23 = icmp eq ptr %10, null
  br i1 %.not23, label %13, label %11

11:                                               ; preds = %9
  %12 = call i32 @CRYPTO_THREAD_read_lock(ptr noundef nonnull %10) #6
  %.not24 = icmp eq i32 %12, 0
  br i1 %.not24, label %27, label %13

13:                                               ; preds = %11, %9
  %14 = call ptr @OSSL_PARAM_locate(ptr noundef %1, ptr noundef nonnull @.str.2) #6
  %.not25 = icmp eq ptr %14, null
  br i1 %.not25, label %21, label %15

15:                                               ; preds = %13
  %16 = call ptr @ossl_prov_digest_md(ptr noundef %5) #6
  %17 = icmp eq ptr %16, null
  br i1 %17, label %23, label %18

18:                                               ; preds = %15
  %19 = call ptr @EVP_MD_get0_name(ptr noundef nonnull %16) #6
  %20 = call i32 @OSSL_PARAM_set_utf8_string(ptr noundef nonnull %14, ptr noundef %19) #6
  %.not26 = icmp eq i32 %20, 0
  br i1 %.not26, label %23, label %21

21:                                               ; preds = %18, %13
  %22 = call i32 @ossl_drbg_get_ctx_params(ptr noundef nonnull %0, ptr noundef %1) #6
  br label %23

23:                                               ; preds = %15, %18, %21
  %.0 = phi i32 [ 0, %15 ], [ %22, %21 ], [ 0, %18 ]
  %24 = load ptr, ptr %0, align 8, !tbaa !18
  %.not27 = icmp eq ptr %24, null
  br i1 %.not27, label %27, label %25

25:                                               ; preds = %23
  %26 = call i32 @CRYPTO_THREAD_unlock(ptr noundef nonnull %24) #6
  br label %27

27:                                               ; preds = %23, %25, %11, %7, %2
  %.017 = phi i32 [ 0, %2 ], [ 1, %7 ], [ 0, %11 ], [ %.0, %25 ], [ %.0, %23 ]
  call void @llvm.lifetime.end.p0(i64 4, ptr nonnull %3) #6
  ret i32 %.017
}